target datalayout = "e-m:e-p270:32:32-p271:32:32-p272:64:64-i64:64-i128:128-f80:128-n8:16:32:64-S128"
target triple = "x86_64-pc-linux-gnu"

%struct.FormData_pg_amop = type { i32, i32, i32, i32, i16, i8, i32, i32, i32 }
%struct.HeapTupleData = type { i32, %struct.ItemPointerData, i32, ptr }
%struct.ItemPointerData = type { %struct.BlockIdData, i16 }
%struct.BlockIdData = type { i16, i16 }
%struct.HeapTupleHeaderData = type { %union.anon, %struct.ItemPointerData, i16, i16, i8, [0 x i8] }
%union.anon = type { %struct.HeapTupleFields }
%struct.HeapTupleFields = type { i32, i32, %union.anon.0 }
%union.anon.0 = type { i32 }
%struct.catclist = type { i32, i32, %struct.dlist_node, [4 x i64], i32, i8, i8, i16, i32, ptr, [0 x ptr] }
%struct.dlist_node = type { ptr, ptr }
%struct.catctup = type { i32, i32, [4 x i64], %struct.dlist_node, i32, i8, i8, %struct.HeapTupleData, ptr, ptr }
%struct.OpBtreeInterpretation = type { i32, i32, i32, i32 }
%struct.FormData_pg_operator = type { i32, %struct.nameData, i32, i32, i8, i8, i8, i32, i32, i32, i32, i32, i32, i32, i32 }
%struct.nameData = type { [64 x i8] }

; Function Attrs: nounwind uwtable
define dso_local i32 @get_negator(i32 noundef %0) #0 {
  %2 = alloca i32, align 4
  %3 = alloca i32, align 4
  %4 = alloca ptr, align 8
  %5 = alloca ptr, align 8
  %6 = alloca i32, align 4
  %7 = alloca i32, align 4
  store i32 %0, ptr %3, align 4
  call void @llvm.lifetime.start.p0(i64 8, ptr %4) #7
  %8 = load i32, ptr %3, align 4
  %9 = call i64 @ObjectIdGetDatum(i32 noundef %8)
  %10 = call ptr @SearchSysCache1(i32 noundef 40, i64 noundef %9)
  store ptr %10, ptr %4, align 8
  %11 = load ptr, ptr %4, align 8
  %12 = icmp ne ptr %11, null
  br i1 %12, label %13, label %21

13:                                               ; preds = %1
  call void @llvm.lifetime.start.p0(i64 8, ptr %5) #7
  %14 = load ptr, ptr %4, align 8
  %15 = call ptr @GETSTRUCT(ptr noundef %14)
  store ptr %15, ptr %5, align 8
  call void @llvm.lifetime.start.p0(i64 4, ptr %6) #7
  %16 = load ptr, ptr %5, align 8
  %17 = getelementptr inbounds nuw %struct.FormData_pg_operator, ptr %16, i32 0, i32 11
  %18 = load i32, ptr %17, align 4
  store i32 %18, ptr %6, align 4
  %19 = load ptr, ptr %4, align 8
  call void @ReleaseSysCache(ptr noundef %19)
  %20 = load i32, ptr %6, align 4
  store i32 %20, ptr %2, align 4
  store i32 1, ptr %7, align 4
  call void @llvm.lifetime.end.p0(i64 4, ptr %6) #7
  call void @llvm.lifetime.end.p0(i64 8, ptr %5) #7
  br label %22

21:                                               ; preds = %1
  store i32 0, ptr %2, align 4
  store i32 1, ptr %7, align 4
  br label %22

22:                                               ; preds = %21, %13
  call void @llvm.lifetime.end.p0(i64 8, ptr %4) #7
  %23 = load i32, ptr %2, align 4
  ret i32 %23
}

; Function Attrs: inlinehint nounwind uwtable
define internal ptr @GETSTRUCT(ptr noundef %0) #2 {
  %2 = alloca ptr, align 8
  store ptr %0, ptr %2, align 8
  %3 = load ptr, ptr %2, align 8
  %4 = getelementptr inbounds nuw %struct.HeapTupleData, ptr %3, i32 0, i32 3
  %5 = load ptr, ptr %4, align 8
  %6 = load ptr, ptr %2, align 8
  %7 = getelementptr inbounds nuw %struct.HeapTupleData, ptr %6, i32 0, i32 3
  %8 = load ptr, ptr %7, align 8
  %9 = getelementptr inbounds nuw %struct.HeapTupleHeaderData, ptr %8, i32 0, i32 4
  %10 = load i8, ptr %9, align 2
  %11 = zext i8 %10 to i32
  %12 = sext i32 %11 to i64
  %13 = getelementptr inbounds i8, ptr %5, i64 %12
  ret ptr %13
}

; Function Attrs: inlinehint nounwind uwtable
define internal i64 @ObjectIdGetDatum(i32 noundef %0) #2 {
  %2 = alloca i32, align 4
  store i32 %0, ptr %2, align 4
  %3 = load i32, ptr %2, align 4
  %4 = zext i32 %3 to i64
  ret i64 %4
}

; Function Attrs: nounwind uwtable
define dso_local ptr @get_op_btree_interpretation(i32 noundef %0) #0 {
  %2 = alloca i32, align 4
  %3 = alloca ptr, align 8
  %4 = alloca ptr, align 8
  %5 = alloca ptr, align 8
  %6 = alloca i32, align 4
  %7 = alloca ptr, align 8
  %8 = alloca ptr, align 8
  %9 = alloca i16, align 2
  %10 = alloca i32, align 4
  %11 = alloca i32, align 4
  %12 = alloca ptr, align 8
  %13 = alloca ptr, align 8
  %14 = alloca i16, align 2
  store i32 %0, ptr %2, align 4
  call void @llvm.lifetime.start.p0(i64 8, ptr %3) #7
  store ptr null, ptr %3, align 8
  call void @llvm.lifetime.start.p0(i64 8, ptr %4) #7
  call void @llvm.lifetime.start.p0(i64 8, ptr %5) #7
  call void @llvm.lifetime.start.p0(i64 4, ptr %6) #7
  %15 = load i32, ptr %2, align 4
  %16 = call i64 @ObjectIdGetDatum(i32 noundef %15)
  %17 = call ptr @SearchSysCacheList(i32 noundef 3, i32 noundef 1, i64 noundef %16, i64 noundef 0, i64 noundef 0)
  store ptr %17, ptr %5, align 8
  store i32 0, ptr %6, align 4
  br label %18

18:                                               ; preds = %69, %1
  %19 = load i32, ptr %6, align 4
  %20 = load ptr, ptr %5, align 8
  %21 = getelementptr inbounds nuw %struct.catclist, ptr %20, i32 0, i32 8
  %22 = load i32, ptr %21, align 8
  %23 = icmp slt i32 %19, %22
  br i1 %23, label %24, label %72

24:                                               ; preds = %18
  call void @llvm.lifetime.start.p0(i64 8, ptr %7) #7
  %25 = load ptr, ptr %5, align 8
  %26 = getelementptr inbounds nuw %struct.catclist, ptr %25, i32 0, i32 10
  %27 = load i32, ptr %6, align 4
  %28 = sext i32 %27 to i64
  %29 = getelementptr inbounds [0 x ptr], ptr %26, i64 0, i64 %28
  %30 = load ptr, ptr %29, align 8
  %31 = getelementptr inbounds nuw %struct.catctup, ptr %30, i32 0, i32 7
  store ptr %31, ptr %7, align 8
  call void @llvm.lifetime.start.p0(i64 8, ptr %8) #7
  %32 = load ptr, ptr %7, align 8
  %33 = call ptr @GETSTRUCT(ptr noundef %32)
  store ptr %33, ptr %8, align 8
  call void @llvm.lifetime.start.p0(i64 2, ptr %9) #7
  %34 = load ptr, ptr %8, align 8
  %35 = getelementptr inbounds nuw %struct.FormData_pg_amop, ptr %34, i32 0, i32 7
  %36 = load i32, ptr %35, align 4
  %37 = icmp ne i32 %36, 403
  br i1 %37, label %38, label %39

38:                                               ; preds = %24
  store i32 4, ptr %10, align 4
  br label %66

39:                                               ; preds = %24
  %40 = load ptr, ptr %8, align 8
  %41 = getelementptr inbounds nuw %struct.FormData_pg_amop, ptr %40, i32 0, i32 4
  %42 = load i16, ptr %41, align 4
  store i16 %42, ptr %9, align 2
  %43 = call ptr @palloc(i64 noundef 16)
  store ptr %43, ptr %4, align 8
  %44 = load ptr, ptr %8, align 8
  %45 = getelementptr inbounds nuw %struct.FormData_pg_amop, ptr %44, i32 0, i32 1
  %46 = load i32, ptr %45, align 4
  %47 = load ptr, ptr %4, align 8
  %48 = getelementptr inbounds nuw %struct.OpBtreeInterpretation, ptr %47, i32 0, i32 0
  store i32 %46, ptr %48, align 4
  %49 = load i16, ptr %9, align 2
  %50 = zext i16 %49 to i32
  %51 = load ptr, ptr %4, align 8
  %52 = getelementptr inbounds nuw %struct.OpBtreeInterpretation, ptr %51, i32 0, i32 1
  store i32 %50, ptr %52, align 4
  %53 = load ptr, ptr %8, align 8
  %54 = getelementptr inbounds nuw %struct.FormData_pg_amop, ptr %53, i32 0, i32 2
  %55 = load i32, ptr %54, align 4
  %56 = load ptr, ptr %4, align 8
  %57 = getelementptr inbounds nuw %struct.OpBtreeInterpretation, ptr %56, i32 0, i32 2
  store i32 %55, ptr %57, align 4
  %58 = load ptr, ptr %8, align 8
  %59 = getelementptr inbounds nuw %struct.FormData_pg_amop, ptr %58, i32 0, i32 3
  %60 = load i32, ptr %59, align 4
  %61 = load ptr, ptr %4, align 8
  %62 = getelementptr inbounds nuw %struct.OpBtreeInterpretation, ptr %61, i32 0, i32 3
  store i32 %60, ptr %62, align 4
  %63 = load ptr, ptr %3, align 8
  %64 = load ptr, ptr %4, align 8
  %65 = call ptr @lappend(ptr noundef %63, ptr noundef %64)
  store ptr %65, ptr %3, align 8
  store i32 0, ptr %10, align 4
  br label %66

66:                                               ; preds = %39, %38
  call void @llvm.lifetime.end.p0(i64 2, ptr %9) #7
  call void @llvm.lifetime.end.p0(i64 8, ptr %8) #7
  call void @llvm.lifetime.end.p0(i64 8, ptr %7) #7
  %67 = load i32, ptr %10, align 4
  switch i32 %67, label %147 [
    i32 0, label %68
    i32 4, label %69
  ]

68:                                               ; preds = %66
  br label %69

69:                                               ; preds = %68, %66
  %70 = load i32, ptr %6, align 4
  %71 = add i32 %70, 1
  store i32 %71, ptr %6, align 4
  br label %18, !llvm.loop !12

72:                                               ; preds = %18
  %73 = load ptr, ptr %5, align 8
  call void @ReleaseCatCacheList(ptr noundef %73)
  %74 = load ptr, ptr %3, align 8
  %75 = icmp eq ptr %74, null
  br i1 %75, label %76, label %145

76:                                               ; preds = %72
  call void @llvm.lifetime.start.p0(i64 4, ptr %11) #7
  %77 = load i32, ptr %2, align 4
  %78 = call i32 @get_negator(i32 noundef %77)
  store i32 %78, ptr %11, align 4
  %79 = load i32, ptr %11, align 4
  %80 = icmp ne i32 %79, 0
  br i1 %80, label %81, label %144

81:                                               ; preds = %76
  %82 = load i32, ptr %11, align 4
  %83 = call i64 @ObjectIdGetDatum(i32 noundef %82)
  %84 = call ptr @SearchSysCacheList(i32 noundef 3, i32 noundef 1, i64 noundef %83, i64 noundef 0, i64 noundef 0)
  store ptr %84, ptr %5, align 8
  store i32 0, ptr %6, align 4
  br label %85

85:                                               ; preds = %139, %81
  %86 = load i32, ptr %6, align 4
  %87 = load ptr, ptr %5, align 8
  %88 = getelementptr inbounds nuw %struct.catclist, ptr %87, i32 0, i32 8
  %89 = load i32, ptr %88, align 8
  %90 = icmp slt i32 %86, %89
  br i1 %90, label %91, label %142

91:                                               ; preds = %85
  call void @llvm.lifetime.start.p0(i64 8, ptr %12) #7
  %92 = load ptr, ptr %5, align 8
  %93 = getelementptr inbounds nuw %struct.catclist, ptr %92, i32 0, i32 10
  %94 = load i32, ptr %6, align 4
  %95 = sext i32 %94 to i64
  %96 = getelementptr inbounds [0 x ptr], ptr %93, i64 0, i64 %95
  %97 = load ptr, ptr %96, align 8
  %98 = getelementptr inbounds nuw %struct.catctup, ptr %97, i32 0, i32 7
  store ptr %98, ptr %12, align 8
  call void @llvm.lifetime.start.p0(i64 8, ptr %13) #7
  %99 = load ptr, ptr %12, align 8
  %100 = call ptr @GETSTRUCT(ptr noundef %99)
  store ptr %100, ptr %13, align 8
  call void @llvm.lifetime.start.p0(i64 2, ptr %14) #7
  %101 = load ptr, ptr %13, align 8
  %102 = getelementptr inbounds nuw %struct.FormData_pg_amop, ptr %101, i32 0, i32 7
  %103 = load i32, ptr %102, align 4
  %104 = icmp ne i32 %103, 403
  br i1 %104, label %105, label %106

105:                                              ; preds = %91
  store i32 7, ptr %10, align 4
  br label %136

106:                                              ; preds = %91
  %107 = load ptr, ptr %13, align 8
  %108 = getelementptr inbounds nuw %struct.FormData_pg_amop, ptr %107, i32 0, i32 4
  %109 = load i16, ptr %108, align 4
  store i16 %109, ptr %14, align 2
  %110 = load i16, ptr %14, align 2
  %111 = zext i16 %110 to i32
  %112 = icmp ne i32 %111, 3
  br i1 %112, label %113, label %114

113:                                              ; preds = %106
  store i32 7, ptr %10, align 4
  br label %136

114:                                              ; preds = %106
  %115 = call ptr @palloc(i64 noundef 16)
  store ptr %115, ptr %4, align 8
  %116 = load ptr, ptr %13, align 8
  %117 = getelementptr inbounds nuw %struct.FormData_pg_amop, ptr %116, i32 0, i32 1
  %118 = load i32, ptr %117, align 4
  %119 = load ptr, ptr %4, align 8
  %120 = getelementptr inbounds nuw %struct.OpBtreeInterpretation, ptr %119, i32 0, i32 0
  store i32 %118, ptr %120, align 4
  %121 = load ptr, ptr %4, align 8
  %122 = getelementptr inbounds nuw %struct.OpBtreeInterpretation, ptr %121, i32 0, i32 1
  store i32 6, ptr %122, align 4
  %123 = load ptr, ptr %13, align 8
  %124 = getelementptr inbounds nuw %struct.FormData_pg_amop, ptr %123, i32 0, i32 2
  %125 = load i32, ptr %124, align 4
  %126 = load ptr, ptr %4, align 8
  %127 = getelementptr inbounds nuw %struct.OpBtreeInterpretation, ptr %126, i32 0, i32 2
  store i32 %125, ptr %127, align 4
  %128 = load ptr, ptr %13, align 8
  %129 = getelementptr inbounds nuw %struct.FormData_pg_amop, ptr %128, i32 0, i32 3
  %130 = load i32, ptr %129, align 4
  %131 = load ptr, ptr %4, align 8
  %132 = getelementptr inbounds nuw %struct.OpBtreeInterpretation, ptr %131, i32 0, i32 3
  store i32 %130, ptr %132, align 4
  %133 = load ptr, ptr %3, align 8
  %134 = load ptr, ptr %4, align 8
  %135 = call ptr @lappend(ptr noundef %133, ptr noundef %134)
  store ptr %135, ptr %3, align 8
  store i32 0, ptr %10, align 4
  br label %136

136:                                              ; preds = %114, %113, %105
  call void @llvm.lifetime.end.p0(i64 2, ptr %14) #7
  call void @llvm.lifetime.end.p0(i64 8, ptr %13) #7
  call void @llvm.lifetime.end.p0(i64 8, ptr %12) #7
  %137 = load i32, ptr %10, align 4
  switch i32 %137, label %147 [
    i32 0, label %138
    i32 7, label %139
  ]

138:                                              ; preds = %136
  br label %139

139:                                              ; preds = %138, %136
  %140 = load i32, ptr %6, align 4
  %141 = add i32 %140, 1
  store i32 %141, ptr %6, align 4
  br label %85, !llvm.loop !13

142:                                              ; preds = %85
  %143 = load ptr, ptr %5, align 8
  call void @ReleaseCatCacheList(ptr noundef %143)
  br label %144

144:                                              ; preds = %142, %76
  call void @llvm.lifetime.end.p0(i64 4, ptr %11) #7
  br label %145

145:                                              ; preds = %144, %72
  %146 = load ptr, ptr %3, align 8
  store i32 1, ptr %10, align 4
  call void @llvm.lifetime.end.p0(i64 4, ptr %6) #7
  call void @llvm.lifetime.end.p0(i64 8, ptr %5) #7
  call void @llvm.lifetime.end.p0(i64 8, ptr %4) #7
  call void @llvm.lifetime.end.p0(i64 8, ptr %3) #7
  ret ptr %146

147:                                              ; preds = %136, %66
  unreachable
}