; Function Attrs: nounwind uwtable
define dso_local ptr @get_op_btree_interpretation(i32 noundef %0) local_unnamed_addr #0 {
  %2 = zext i32 %0 to i64
  %3 = tail call ptr @SearchSysCacheList(i32 noundef 3, i32 noundef 1, i64 noundef %2, i64 noundef 0, i64 noundef 0) #8
  %4 = getelementptr inbounds nuw i8, ptr %3, i64 64
  %5 = load i32, ptr %4, align 8
  %6 = icmp sgt i32 %5, 0
  br i1 %6, label %.lr.ph, label %._crit_edge.thread

._crit_edge.thread:                               ; preds = %1
  tail call void @ReleaseCatCacheList(ptr noundef nonnull %3) #8
  br label %39

.lr.ph:                                           ; preds = %1
  %7 = getelementptr inbounds nuw i8, ptr %3, i64 80
  br label %8

8:                                                ; preds = %.lr.ph, %34
  %9 = phi i32 [ %5, %.lr.ph ], [ %35, %34 ]
  %indvars.iv = phi i64 [ 0, %.lr.ph ], [ %indvars.iv.next, %34 ]
  %.053 = phi ptr [ null, %.lr.ph ], [ %.1, %34 ]
  %10 = getelementptr inbounds nuw [0 x ptr], ptr %7, i64 0, i64 %indvars.iv
  %11 = load ptr, ptr %10, align 8
  %12 = getelementptr i8, ptr %11, i64 80
  %.val49 = load ptr, ptr %12, align 8
  %13 = getelementptr inbounds nuw i8, ptr %.val49, i64 22
  %14 = load i8, ptr %13, align 2
  %15 = zext i8 %14 to i64
  %16 = getelementptr inbounds nuw i8, ptr %.val49, i64 %15
  %17 = getelementptr inbounds nuw i8, ptr %16, i64 24
  %18 = load i32, ptr %17, align 4
  %.not48 = icmp eq i32 %18, 403
  br i1 %.not48, label %19, label %34

19:                                               ; preds = %8
  %20 = getelementptr inbounds nuw i8, ptr %16, i64 16
  %21 = load i16, ptr %20, align 4
  %22 = tail call ptr @palloc(i64 noundef 16) #8
  %23 = getelementptr inbounds nuw i8, ptr %16, i64 4
  %24 = load i32, ptr %23, align 4
  store i32 %24, ptr %22, align 4
  %25 = zext i16 %21 to i32
  %26 = getelementptr inbounds nuw i8, ptr %22, i64 4
  store i32 %25, ptr %26, align 4
  %27 = getelementptr inbounds nuw i8, ptr %16, i64 8
  %28 = load i32, ptr %27, align 4
  %29 = getelementptr inbounds nuw i8, ptr %22, i64 8
  store i32 %28, ptr %29, align 4
  %30 = getelementptr inbounds nuw i8, ptr %16, i64 12
  %31 = load i32, ptr %30, align 4
  %32 = getelementptr inbounds nuw i8, ptr %22, i64 12
  store i32 %31, ptr %32, align 4
  %33 = tail call ptr @lappend(ptr noundef %.053, ptr noundef nonnull %22) #8
  %.pre = load i32, ptr %4, align 8
  br label %34

34:                                               ; preds = %8, %19
  %35 = phi i32 [ %.pre, %19 ], [ %9, %8 ]
  %.1 = phi ptr [ %33, %19 ], [ %.053, %8 ]
  %indvars.iv.next = add nuw nsw i64 %indvars.iv, 1
  %36 = sext i32 %35 to i64
  %37 = icmp slt i64 %indvars.iv.next, %36
  br i1 %37, label %8, label %._crit_edge, !llvm.loop !10

._crit_edge:                                      ; preds = %34
  tail call void @ReleaseCatCacheList(ptr noundef nonnull %3) #8
  %38 = icmp eq ptr %.1, null
  br i1 %38, label %39, label %get_negator.exit.thread

39:                                               ; preds = %._crit_edge.thread, %._crit_edge
  %40 = tail call ptr @SearchSysCache1(i32 noundef 40, i64 noundef %2) #8
  %.not.i = icmp eq ptr %40, null
  br i1 %.not.i, label %get_negator.exit.thread, label %get_negator.exit

get_negator.exit:                                 ; preds = %39
  %41 = getelementptr i8, ptr %40, i64 16
  %.val.i = load ptr, ptr %41, align 8
  %42 = getelementptr inbounds nuw i8, ptr %.val.i, i64 22
  %43 = load i8, ptr %42, align 2
  %44 = zext i8 %43 to i64
  %45 = getelementptr inbounds nuw i8, ptr %.val.i, i64 %44
  %46 = getelementptr inbounds nuw i8, ptr %45, i64 96
  %47 = load i32, ptr %46, align 4
  tail call void @ReleaseSysCache(ptr noundef nonnull %40) #8
  %.not = icmp eq i32 %47, 0
  br i1 %.not, label %get_negator.exit.thread, label %48

48:                                               ; preds = %get_negator.exit
  %49 = zext i32 %47 to i64
  %50 = tail call ptr @SearchSysCacheList(i32 noundef 3, i32 noundef 1, i64 noundef %49, i64 noundef 0, i64 noundef 0) #8
  %51 = getelementptr inbounds nuw i8, ptr %50, i64 64
  %52 = load i32, ptr %51, align 8
  %53 = icmp sgt i32 %52, 0
  br i1 %53, label %.lr.ph57, label %._crit_edge58

.lr.ph57:                                         ; preds = %48
  %54 = getelementptr inbounds nuw i8, ptr %50, i64 80
  br label %55

55:                                               ; preds = %.lr.ph57, %81
  %56 = phi i32 [ %52, %.lr.ph57 ], [ %82, %81 ]
  %indvars.iv61 = phi i64 [ 0, %.lr.ph57 ], [ %indvars.iv.next62, %81 ]
  %.455 = phi ptr [ null, %.lr.ph57 ], [ %.5, %81 ]
  %57 = getelementptr inbounds nuw [0 x ptr], ptr %54, i64 0, i64 %indvars.iv61
  %58 = load ptr, ptr %57, align 8
  %59 = getelementptr i8, ptr %58, i64 80
  %.val = load ptr, ptr %59, align 8
  %60 = getelementptr inbounds nuw i8, ptr %.val, i64 22
  %61 = load i8, ptr %60, align 2
  %62 = zext i8 %61 to i64
  %63 = getelementptr inbounds nuw i8, ptr %.val, i64 %62
  %64 = getelementptr inbounds nuw i8, ptr %63, i64 24
  %65 = load i32, ptr %64, align 4
  %.not46 = icmp eq i32 %65, 403
  br i1 %.not46, label %66, label %81

66:                                               ; preds = %55
  %67 = getelementptr inbounds nuw i8, ptr %63, i64 16
  %68 = load i16, ptr %67, align 4
  %.not47 = icmp eq i16 %68, 3
  br i1 %.not47, label %69, label %81

69:                                               ; preds = %66
  %70 = tail call ptr @palloc(i64 noundef 16) #8
  %71 = getelementptr inbounds nuw i8, ptr %63, i64 4
  %72 = load i32, ptr %71, align 4
  store i32 %72, ptr %70, align 4
  %73 = getelementptr inbounds nuw i8, ptr %70, i64 4
  store i32 6, ptr %73, align 4
  %74 = getelementptr inbounds nuw i8, ptr %63, i64 8
  %75 = load i32, ptr %74, align 4
  %76 = getelementptr inbounds nuw i8, ptr %70, i64 8
  store i32 %75, ptr %76, align 4
  %77 = getelementptr inbounds nuw i8, ptr %63, i64 12
  %78 = load i32, ptr %77, align 4
  %79 = getelementptr inbounds nuw i8, ptr %70, i64 12
  store i32 %78, ptr %79, align 4
  %80 = tail call ptr @lappend(ptr noundef %.455, ptr noundef nonnull %70) #8
  %.pre64 = load i32, ptr %51, align 8
  br label %81

81:                                               ; preds = %66, %55, %69
  %82 = phi i32 [ %.pre64, %69 ], [ %56, %55 ], [ %56, %66 ]
  %.5 = phi ptr [ %80, %69 ], [ %.455, %55 ], [ %.455, %66 ]
  %indvars.iv.next62 = add nuw nsw i64 %indvars.iv61, 1
  %83 = sext i32 %82 to i64
  %84 = icmp slt i64 %indvars.iv.next62, %83
  br i1 %84, label %55, label %._crit_edge58, !llvm.loop !11

._crit_edge58:                                    ; preds = %81, %48
  %.4.lcssa = phi ptr [ null, %48 ], [ %.5, %81 ]
  tail call void @ReleaseCatCacheList(ptr noundef nonnull %50) #8
  br label %get_negator.exit.thread

get_negator.exit.thread:                          ; preds = %39, %get_negator.exit, %._crit_edge58, %._crit_edge
  %.2 = phi ptr [ %.1, %._crit_edge ], [ %.4.lcssa, %._crit_edge58 ], [ null, %get_negator.exit ], [ null, %39 ]
  ret ptr %.2
}